(dp0
S'lkey'
p1
(lp2
S'#6da6d3'
p3
aS'#772bf7'
p4
asS'Keys'
p5
(lp6
S'#fff'
p7
aS'#000'
p8
asS'DC'
p9
(lp10
S'#8dd869'
p11
aS'#fa4786'
p12
asS'EC'
p13
(lp14
S'#fa4786'
p15
aS'#8dd869'
p16
asS'FG'
p17
(lp18
S'#6da6d3'
p19
aS'#772bf7'
p20
asS'lmsg'
p21
(lp22
S'#6da6d3'
p23
aS'#772bf7'
p24
asS'root'
p25
(lp26
S'#6da6d3'
p27
asS'textbox'
p28
(lp29
S'SystemWindow'
p30
aS'#02e39a'
p31
as.