(dp0
S'lkey'
p1
(lp2
S'#ba2c2c'
p3
aS'#2b0cda'
p4
asS'Keys'
p5
(lp6
S'#fe611d'
p7
aS'#300cda'
p8
asS'DC'
p9
(lp10
S'#000000'
p11
aS'#ffffff'
p12
asS'EC'
p13
(lp14
S'#ffffff'
p15
aS'#000000'
p16
asS'FG'
p17
(lp18
S'#ba2c2c'
p19
aS'#2b0cda'
p20
asS'lmsg'
p21
(lp22
S'#ba2c2c'
p23
aS'#2b0cda'
p24
asS'root'
p25
(lp26
S'#ba2c2c'
p27
asS'textbox'
p28
(lp29
S'#88fbe1'
p30
aS'#3556d9'
p31
as.