(dp0
S'lkey'
p1
(lp2
S'#ffffff'
p3
aS'#4250b3'
p4
asS'Keys'
p5
(lp6
S'#fff'
p7
aS'#17dd80'
p8
asS'DC'
p9
(lp10
S'#f40000'
p11
aS'#0018f4'
p12
asS'EC'
p13
(lp14
S'#0018f4'
p15
aS'#f40000'
p16
asS'FG'
p17
(lp18
S'#ffffff'
p19
aS'#4250b3'
p20
asS'lmsg'
p21
(lp22
S'#ffffff'
p23
aS'#4250b3'
p24
asS'root'
p25
(lp26
S'#ffffff'
p27
asS'textbox'
p28
(lp29
S'#000000'
p30
aS'#8d5bf7'
p31
as.