(dp0
S'lkey'
p1
(lp2
S'#000000'
p3
aS'#772bf7'
p4
asS'Keys'
p5
(lp6
S'#fe611d'
p7
aS'#300cda'
p8
asS'DC'
p9
(lp10
S'#03e235'
p11
aS'#0a34dc'
p12
asS'EC'
p13
(lp14
S'#0a34dc'
p15
aS'#03e235'
p16
asS'FG'
p17
(lp18
S'#000000'
p19
aS'#772bf7'
p20
asS'lmsg'
p21
(lp22
S'#000000'
p23
aS'#772bf7'
p24
asS'root'
p25
(lp26
S'#000'
p27
asS'textbox'
p28
(lp29
S'#000000'
p30
aS'#02e39a'
p31
as.